target datalayout = "e-m:e-p270:32:32-p271:32:32-p272:64:64-i64:64-i128:128-f80:128-n8:16:32:64-S128"
target triple = "x86_64-pc-linux-gnu"

%struct.StringInfoData = type { ptr, i32, i32, i32 }
%struct.__va_list_tag = type { i32, i32, ptr, ptr }

@.str.4 = private unnamed_addr constant [13 x i8] c"walsummary.c\00", align 1
@.str.11 = private unnamed_addr constant [3 x i8] c"%s\00", align 1
@__func__.ReportWalSummaryError = private unnamed_addr constant [22 x i8] c"ReportWalSummaryError\00", align 1

; Function Attrs: nounwind uwtable
define dso_local void @ReportWalSummaryError(ptr noundef %0, ptr noundef %1, ...) #0 {
  %3 = alloca ptr, align 8
  %4 = alloca ptr, align 8
  %5 = alloca %struct.StringInfoData, align 8
  %6 = alloca [1 x %struct.__va_list_tag], align 16
  %7 = alloca i32, align 4
  store ptr %0, ptr %3, align 8
  store ptr %1, ptr %4, align 8
  call void @llvm.lifetime.start.p0(i64 24, ptr %5) #10
  call void @llvm.lifetime.start.p0(i64 24, ptr %6) #10
  call void @llvm.lifetime.start.p0(i64 4, ptr %7) #10
  call void @initStringInfo(ptr noundef %5)
  br label %8

8:                                                ; preds = %17, %2
  %9 = getelementptr inbounds [1 x %struct.__va_list_tag], ptr %6, i64 0, i64 0
  call void @llvm.va_start.p0(ptr %9)
  %10 = load ptr, ptr %4, align 8
  %11 = getelementptr inbounds [1 x %struct.__va_list_tag], ptr %6, i64 0, i64 0
  %12 = call i32 @appendStringInfoVA(ptr noundef %5, ptr noundef %10, ptr noundef %11)
  store i32 %12, ptr %7, align 4
  %13 = getelementptr inbounds [1 x %struct.__va_list_tag], ptr %6, i64 0, i64 0
  call void @llvm.va_end.p0(ptr %13)
  %14 = load i32, ptr %7, align 4
  %15 = icmp eq i32 %14, 0
  br i1 %15, label %16, label %17

16:                                               ; preds = %8
  br label %19

17:                                               ; preds = %8
  %18 = load i32, ptr %7, align 4
  call void @enlargeStringInfo(ptr noundef %5, i32 noundef %18)
  br label %8

19:                                               ; preds = %16
  br label %20

20:                                               ; preds = %19
  br i1 true, label %21, label %23

21:                                               ; preds = %20
  %22 = call zeroext i1 @errstart_cold(i32 noundef 21, ptr noundef null) #13
  br i1 %22, label %25, label %30

23:                                               ; preds = %20
  %24 = call zeroext i1 @errstart(i32 noundef 21, ptr noundef null)
  br i1 %24, label %25, label %30

25:                                               ; preds = %23, %21
  %26 = call i32 @errcode(i32 noundef 16779816)
  %27 = getelementptr inbounds nuw %struct.StringInfoData, ptr %5, i32 0, i32 0
  %28 = load ptr, ptr %27, align 8
  %29 = call i32 (ptr, ...) @errmsg_internal(ptr noundef @.str.11, ptr noundef %28)
  call void @errfinish(ptr noundef @.str.4, i32 noundef 340, ptr noundef @__func__.ReportWalSummaryError)
  br label %30

30:                                               ; preds = %25, %23, %21
  unreachable

31:                                               ; No predecessors!
  br label %32

32:                                               ; preds = %31
  call void @llvm.lifetime.end.p0(i64 4, ptr %7) #10
  call void @llvm.lifetime.end.p0(i64 24, ptr %6) #10
  call void @llvm.lifetime.end.p0(i64 24, ptr %5) #10
  ret void
}