; Function Attrs: noreturn nounwind uwtable
define dso_local void @ReportWalSummaryError(ptr noundef readnone captures(none) %0, ptr noundef %1, ...) local_unnamed_addr #7 {
  %3 = alloca %struct.StringInfoData, align 8
  %4 = alloca [1 x %struct.__va_list_tag], align 16
  call void @llvm.lifetime.start.p0(i64 24, ptr nonnull %3) #12
  call void @llvm.lifetime.start.p0(i64 24, ptr nonnull %4) #12
  call void @initStringInfo(ptr noundef nonnull %3) #12
  call void @llvm.va_start.p0(ptr nonnull %4)
  %5 = call i32 @appendStringInfoVA(ptr noundef nonnull %3, ptr noundef %1, ptr noundef nonnull %4) #12
  call void @llvm.va_end.p0(ptr nonnull %4)
  %6 = icmp eq i32 %5, 0
  br i1 %6, label %._crit_edge, label %.lr.ph

.lr.ph:                                           ; preds = %2, %.lr.ph
  %7 = phi i32 [ %8, %.lr.ph ], [ %5, %2 ]
  call void @enlargeStringInfo(ptr noundef nonnull %3, i32 noundef %7) #12
  call void @llvm.va_start.p0(ptr nonnull %4)
  %8 = call i32 @appendStringInfoVA(ptr noundef nonnull %3, ptr noundef %1, ptr noundef nonnull %4) #12
  call void @llvm.va_end.p0(ptr nonnull %4)
  %9 = icmp eq i32 %8, 0
  br i1 %9, label %._crit_edge, label %.lr.ph

._crit_edge:                                      ; preds = %.lr.ph, %2
  %10 = call zeroext i1 @errstart_cold(i32 noundef 21, ptr noundef null) #15
  call void @llvm.assume(i1 %10)
  %11 = call i32 @errcode(i32 noundef 16779816) #12
  %12 = load ptr, ptr %3, align 8
  %13 = call i32 (ptr, ...) @errmsg_internal(ptr noundef nonnull @.str.11, ptr noundef %12) #12
  call void @errfinish(ptr noundef nonnull @.str.4, i32 noundef 340, ptr noundef nonnull @__func__.ReportWalSummaryError) #12
  unreachable
}